target datalayout = "e-m:e-p270:32:32-p271:32:32-p272:64:64-i64:64-i128:128-f80:128-n8:16:32:64-S128"
target triple = "x86_64-pc-linux-gnu"

%"class.std::__cxx11::basic_string" = type { %"struct.std::__cxx11::basic_string<char>::_Alloc_hider", i64, %union.anon }
%"struct.std::__cxx11::basic_string<char>::_Alloc_hider" = type { ptr }
%union.anon = type { i64, [8 x i8] }
%struct.stat = type { i64, i64, i64, i32, i32, i32, i32, i64, i64, i64, i64, %struct.timespec, %struct.timespec, %struct.timespec, [3 x i64] }
%struct.timespec = type { i64, i64 }
%struct.timeval = type { i64, i64 }

@.str.4 = private unnamed_addr constant [31 x i8] c"changing mode of '%1%' to %2$o\00", align 1
@_ZTIN3nix8SysErrorE = linkonce_odr constant { ptr, ptr, ptr } { ptr getelementptr inbounds (ptr, ptr @_ZTVN10__cxxabiv120__si_class_type_infoE, i64 2), ptr @_ZTSN3nix8SysErrorE, ptr @_ZTIN3nix11SystemErrorE }, comdat, align 8
@.str.5 = private unnamed_addr constant [36 x i8] c"changing modification time of '%1%'\00", align 1

; Function Attrs: noreturn nounwind uwtable
define linkonce_odr hidden void @__clang_call_terminate(ptr noundef %0) #8 comdat {
  %2 = call ptr @__cxa_begin_catch(ptr %0) #1
  call void @_ZSt9terminatev() #21
  unreachable
}

; Function Attrs: mustprogress nounwind uwtable
define linkonce_odr noundef ptr @_ZNKSt7__cxx1112basic_stringIcSt11char_traitsIcESaIcEE7_M_dataEv(ptr noundef nonnull align 8 dereferenceable(32) %0) #2 comdat align 2 {
  %2 = alloca ptr, align 8
  store ptr %0, ptr %2, align 8
  %3 = load ptr, ptr %2, align 8
  %4 = getelementptr inbounds %"class.std::__cxx11::basic_string", ptr %3, i32 0, i32 0
  %5 = getelementptr inbounds %"struct.std::__cxx11::basic_string<char>::_Alloc_hider", ptr %4, i32 0, i32 0
  %6 = load ptr, ptr %5, align 8
  ret ptr %6
}

; Function Attrs: mustprogress nounwind uwtable
define linkonce_odr noundef ptr @_ZNKSt7__cxx1112basic_stringIcSt11char_traitsIcESaIcEE5c_strEv(ptr noundef nonnull align 8 dereferenceable(32) %0) #2 comdat align 2 personality ptr @__gxx_personality_v0 {
  %2 = alloca ptr, align 8
  store ptr %0, ptr %2, align 8
  %3 = load ptr, ptr %2, align 8
  %4 = invoke noundef ptr @_ZNKSt7__cxx1112basic_stringIcSt11char_traitsIcESaIcEE7_M_dataEv(ptr noundef nonnull align 8 dereferenceable(32) %3)
          to label %5 unwind label %6

5:                                                ; preds = %1
  ret ptr %4

6:                                                ; preds = %1
  %7 = landingpad { ptr, i32 }
          catch ptr null
  %8 = extractvalue { ptr, i32 } %7, 0
  call void @__clang_call_terminate(ptr %8) #21
  unreachable
}

; Function Attrs: mustprogress uwtable
define internal void @_ZN3nixL35canonicaliseTimestampAndPermissionsERKNSt7__cxx1112basic_stringIcSt11char_traitsIcESaIcEEERK4stat(ptr noundef nonnull align 8 dereferenceable(32) %0, ptr noundef nonnull align 8 dereferenceable(144) %1) #5 personality ptr @__gxx_personality_v0 {
  %3 = alloca ptr, align 8
  %4 = alloca ptr, align 8
  %5 = alloca i32, align 4
  %6 = alloca ptr, align 8
  %7 = alloca i32, align 4
  %8 = alloca [2 x %struct.timeval], align 16
  store ptr %0, ptr %3, align 8
  store ptr %1, ptr %4, align 8
  %9 = load ptr, ptr %4, align 8
  %10 = getelementptr inbounds %struct.stat, ptr %9, i32 0, i32 3
  %11 = load i32, ptr %10, align 8
  %12 = and i32 %11, 61440
  %13 = icmp eq i32 %12, 40960
  br i1 %13, label %52, label %14

14:                                               ; preds = %2
  %15 = load ptr, ptr %4, align 8
  %16 = getelementptr inbounds %struct.stat, ptr %15, i32 0, i32 3
  %17 = load i32, ptr %16, align 8
  %18 = and i32 %17, -61441
  store i32 %18, ptr %5, align 4
  %19 = load i32, ptr %5, align 4
  %20 = icmp ne i32 %19, 292
  br i1 %20, label %21, label %51

21:                                               ; preds = %14
  %22 = load i32, ptr %5, align 4
  %23 = icmp ne i32 %22, 365
  br i1 %23, label %24, label %51

24:                                               ; preds = %21
  %25 = load ptr, ptr %4, align 8
  %26 = getelementptr inbounds %struct.stat, ptr %25, i32 0, i32 3
  %27 = load i32, ptr %26, align 8
  %28 = and i32 %27, 61440
  %29 = or i32 %28, 292
  %30 = load ptr, ptr %4, align 8
  %31 = getelementptr inbounds %struct.stat, ptr %30, i32 0, i32 3
  %32 = load i32, ptr %31, align 8
  %33 = and i32 %32, 64
  %34 = icmp ne i32 %33, 0
  %35 = select i1 %34, i32 73, i32 0
  %36 = or i32 %29, %35
  store i32 %36, ptr %5, align 4
  %37 = load ptr, ptr %3, align 8
  %38 = call noundef ptr @_ZNKSt7__cxx1112basic_stringIcSt11char_traitsIcESaIcEE5c_strEv(ptr noundef nonnull align 8 dereferenceable(32) %37) #1
  %39 = load i32, ptr %5, align 4
  %40 = call i32 @chmod(ptr noundef %38, i32 noundef %39) #1
  %41 = icmp eq i32 %40, -1
  br i1 %41, label %42, label %50

42:                                               ; preds = %24
  %43 = call ptr @__cxa_allocate_exception(i64 384) #1
  %44 = load ptr, ptr %3, align 8
  invoke void @_ZN3nix8SysErrorC2IJA31_cNSt7__cxx1112basic_stringIcSt11char_traitsIcESaIcEEEjEEEDpRKT_(ptr noundef nonnull align 8 dereferenceable(380) %43, ptr noundef nonnull align 1 dereferenceable(31) @.str.4, ptr noundef nonnull align 8 dereferenceable(32) %44, ptr noundef nonnull align 4 dereferenceable(4) %5)
          to label %45 unwind label %46

45:                                               ; preds = %42
  call void @__cxa_throw(ptr %43, ptr @_ZTIN3nix8SysErrorE, ptr @_ZN3nix8SysErrorD2Ev) #19
  unreachable

46:                                               ; preds = %42
  %47 = landingpad { ptr, i32 }
          cleanup
  %48 = extractvalue { ptr, i32 } %47, 0
  store ptr %48, ptr %6, align 8
  %49 = extractvalue { ptr, i32 } %47, 1
  store i32 %49, ptr %7, align 4
  call void @__cxa_free_exception(ptr %43) #1
  br label %103

50:                                               ; preds = %24
  br label %51

51:                                               ; preds = %50, %21, %14
  br label %52

52:                                               ; preds = %51, %2
  %53 = load ptr, ptr %4, align 8
  %54 = getelementptr inbounds %struct.stat, ptr %53, i32 0, i32 12
  %55 = getelementptr inbounds %struct.timespec, ptr %54, i32 0, i32 0
  %56 = load i64, ptr %55, align 8
  %57 = icmp ne i64 %56, 1
  br i1 %57, label %58, label %102

58:                                               ; preds = %52
  %59 = load ptr, ptr %4, align 8
  %60 = getelementptr inbounds %struct.stat, ptr %59, i32 0, i32 11
  %61 = getelementptr inbounds %struct.timespec, ptr %60, i32 0, i32 0
  %62 = load i64, ptr %61, align 8
  %63 = getelementptr inbounds [2 x %struct.timeval], ptr %8, i64 0, i64 0
  %64 = getelementptr inbounds %struct.timeval, ptr %63, i32 0, i32 0
  store i64 %62, ptr %64, align 16
  %65 = getelementptr inbounds [2 x %struct.timeval], ptr %8, i64 0, i64 0
  %66 = getelementptr inbounds %struct.timeval, ptr %65, i32 0, i32 1
  store i64 0, ptr %66, align 8
  %67 = getelementptr inbounds [2 x %struct.timeval], ptr %8, i64 0, i64 1
  %68 = getelementptr inbounds %struct.timeval, ptr %67, i32 0, i32 0
  store i64 1, ptr %68, align 16
  %69 = getelementptr inbounds [2 x %struct.timeval], ptr %8, i64 0, i64 1
  %70 = getelementptr inbounds %struct.timeval, ptr %69, i32 0, i32 1
  store i64 0, ptr %70, align 8
  %71 = load ptr, ptr %3, align 8
  %72 = call noundef ptr @_ZNKSt7__cxx1112basic_stringIcSt11char_traitsIcESaIcEE5c_strEv(ptr noundef nonnull align 8 dereferenceable(32) %71) #1
  %73 = getelementptr inbounds [2 x %struct.timeval], ptr %8, i64 0, i64 0
  %74 = call i32 @lutimes(ptr noundef %72, ptr noundef %73) #1
  %75 = icmp eq i32 %74, -1
  br i1 %75, label %76, label %101

76:                                               ; preds = %58
  %77 = call ptr @__errno_location() #20
  %78 = load i32, ptr %77, align 4
  %79 = icmp ne i32 %78, 38
  br i1 %79, label %92, label %80

80:                                               ; preds = %76
  %81 = load ptr, ptr %4, align 8
  %82 = getelementptr inbounds %struct.stat, ptr %81, i32 0, i32 3
  %83 = load i32, ptr %82, align 8
  %84 = and i32 %83, 61440
  %85 = icmp eq i32 %84, 40960
  br i1 %85, label %100, label %86

86:                                               ; preds = %80
  %87 = load ptr, ptr %3, align 8
  %88 = call noundef ptr @_ZNKSt7__cxx1112basic_stringIcSt11char_traitsIcESaIcEE5c_strEv(ptr noundef nonnull align 8 dereferenceable(32) %87) #1
  %89 = getelementptr inbounds [2 x %struct.timeval], ptr %8, i64 0, i64 0
  %90 = call i32 @utimes(ptr noundef %88, ptr noundef %89) #1
  %91 = icmp eq i32 %90, -1
  br i1 %91, label %92, label %100

92:                                               ; preds = %86, %76
  %93 = call ptr @__cxa_allocate_exception(i64 384) #1
  %94 = load ptr, ptr %3, align 8
  invoke void @_ZN3nix8SysErrorC2IJA36_cNSt7__cxx1112basic_stringIcSt11char_traitsIcESaIcEEEEEEDpRKT_(ptr noundef nonnull align 8 dereferenceable(380) %93, ptr noundef nonnull align 1 dereferenceable(36) @.str.5, ptr noundef nonnull align 8 dereferenceable(32) %94)
          to label %95 unwind label %96

95:                                               ; preds = %92
  call void @__cxa_throw(ptr %93, ptr @_ZTIN3nix8SysErrorE, ptr @_ZN3nix8SysErrorD2Ev) #19
  unreachable

96:                                               ; preds = %92
  %97 = landingpad { ptr, i32 }
          cleanup
  %98 = extractvalue { ptr, i32 } %97, 0
  store ptr %98, ptr %6, align 8
  %99 = extractvalue { ptr, i32 } %97, 1
  store i32 %99, ptr %7, align 4
  call void @__cxa_free_exception(ptr %93) #1
  br label %103

100:                                              ; preds = %86, %80
  br label %101

101:                                              ; preds = %100, %58
  br label %102

102:                                              ; preds = %101, %52
  ret void

103:                                              ; preds = %96, %46
  %104 = load ptr, ptr %6, align 8
  %105 = load i32, ptr %7, align 4
  %106 = insertvalue { ptr, i32 } poison, ptr %104, 0
  %107 = insertvalue { ptr, i32 } %106, i32 %105, 1
  resume { ptr, i32 } %107
}