; Function Attrs: mustprogress uwtable
define internal fastcc void @_ZN3nixL35canonicaliseTimestampAndPermissionsERKNSt7__cxx1112basic_stringIcSt11char_traitsIcESaIcEEERK4stat(ptr noundef nonnull align 8 dereferenceable(32) %0, ptr nocapture noundef nonnull readonly align 8 dereferenceable(144) %1) unnamed_addr #4 personality ptr @__gxx_personality_v0 {
  %3 = alloca i32, align 4
  %4 = alloca [2 x %struct.timeval], align 16
  %5 = getelementptr inbounds i8, ptr %1, i64 24
  %6 = load i32, ptr %5, align 8
  %7 = and i32 %6, 61440
  %8 = icmp eq i32 %7, 40960
  br i1 %8, label %24, label %9

9:                                                ; preds = %2
  %10 = and i32 %6, -61441
  switch i32 %10, label %11 [
    i32 365, label %24
    i32 292, label %24
  ]

11:                                               ; preds = %9
  %12 = and i32 %6, 64
  %.not = icmp eq i32 %12, 0
  %13 = select i1 %.not, i32 0, i32 73
  %14 = or disjoint i32 %7, %13
  %15 = or disjoint i32 %14, 292
  store i32 %15, ptr %3, align 4
  %16 = load ptr, ptr %0, align 8
  %17 = tail call i32 @chmod(ptr noundef %16, i32 noundef %15) #25
  %18 = icmp eq i32 %17, -1
  br i1 %18, label %19, label %24

19:                                               ; preds = %11
  %20 = tail call ptr @__cxa_allocate_exception(i64 384) #25
  invoke void @_ZN3nix8SysErrorC2IJA31_cNSt7__cxx1112basic_stringIcSt11char_traitsIcESaIcEEEjEEEDpRKT_(ptr noundef nonnull align 8 dereferenceable(380) %20, ptr noundef nonnull align 1 dereferenceable(31) @.str.4, ptr noundef nonnull align 8 dereferenceable(32) %0, ptr noundef nonnull align 4 dereferenceable(4) %3)
          to label %21 unwind label %22

21:                                               ; preds = %19
  call void @__cxa_throw(ptr nonnull %20, ptr nonnull @_ZTIN3nix8SysErrorE, ptr nonnull @_ZN3nix8SysErrorD2Ev) #26
  unreachable

22:                                               ; preds = %19
  %23 = landingpad { ptr, i32 }
          cleanup
  br label %53

24:                                               ; preds = %9, %9, %11, %2
  %25 = getelementptr inbounds i8, ptr %1, i64 88
  %26 = load i64, ptr %25, align 8
  %.not15 = icmp eq i64 %26, 1
  br i1 %.not15, label %52, label %27

27:                                               ; preds = %24
  %28 = getelementptr inbounds i8, ptr %1, i64 72
  %29 = load i64, ptr %28, align 8
  store i64 %29, ptr %4, align 16
  %30 = getelementptr inbounds i8, ptr %4, i64 8
  store i64 0, ptr %30, align 8
  %31 = getelementptr inbounds i8, ptr %4, i64 16
  store i64 1, ptr %31, align 16
  %32 = getelementptr inbounds i8, ptr %4, i64 24
  store i64 0, ptr %32, align 8
  %33 = load ptr, ptr %0, align 8
  %34 = call i32 @lutimes(ptr noundef %33, ptr noundef nonnull %4) #25
  %35 = icmp eq i32 %34, -1
  br i1 %35, label %36, label %52

36:                                               ; preds = %27
  %37 = tail call ptr @__errno_location() #27
  %38 = load i32, ptr %37, align 4
  %.not16 = icmp eq i32 %38, 38
  br i1 %.not16, label %39, label %47

39:                                               ; preds = %36
  %40 = load i32, ptr %5, align 8
  %41 = and i32 %40, 61440
  %42 = icmp eq i32 %41, 40960
  br i1 %42, label %52, label %43

43:                                               ; preds = %39
  %44 = load ptr, ptr %0, align 8
  %45 = call i32 @utimes(ptr noundef %44, ptr noundef nonnull %4) #25
  %46 = icmp eq i32 %45, -1
  br i1 %46, label %47, label %52

47:                                               ; preds = %43, %36
  %48 = call ptr @__cxa_allocate_exception(i64 384) #25
  invoke void @_ZN3nix8SysErrorC2IJA36_cNSt7__cxx1112basic_stringIcSt11char_traitsIcESaIcEEEEEEDpRKT_(ptr noundef nonnull align 8 dereferenceable(380) %48, ptr noundef nonnull align 1 dereferenceable(36) @.str.5, ptr noundef nonnull align 8 dereferenceable(32) %0)
          to label %49 unwind label %50

49:                                               ; preds = %47
  call void @__cxa_throw(ptr nonnull %48, ptr nonnull @_ZTIN3nix8SysErrorE, ptr nonnull @_ZN3nix8SysErrorD2Ev) #26
  unreachable

50:                                               ; preds = %47
  %51 = landingpad { ptr, i32 }
          cleanup
  br label %53

52:                                               ; preds = %27, %43, %39, %24
  ret void

53:                                               ; preds = %50, %22
  %.sink = phi ptr [ %48, %50 ], [ %20, %22 ]
  %.pn = phi { ptr, i32 } [ %51, %50 ], [ %23, %22 ]
  call void @__cxa_free_exception(ptr %.sink) #25
  resume { ptr, i32 } %.pn
}